; Function Attrs: nounwind uwtable
define internal noundef i32 @PlaybackAudioThread(ptr noundef %0) #0 {
  %2 = load ptr, ptr getelementptr inbounds nuw (i8, ptr @current_audio, i64 32), align 8
  tail call void %2(ptr noundef %0) #14
  %3 = tail call zeroext i1 @SDL_PlaybackAudioThreadIterate(ptr noundef %0)
  br i1 %3, label %.lr.ph, label %._crit_edge

.lr.ph:                                           ; preds = %1
  %4 = getelementptr inbounds nuw i8, ptr %0, i64 24
  br label %5

5:                                                ; preds = %.lr.ph, %9
  %6 = load ptr, ptr %4, align 8
  %7 = tail call zeroext i1 %6(ptr noundef %0) #14
  br i1 %7, label %9, label %8

8:                                                ; preds = %5
  tail call void @SDL_AudioDeviceDisconnected(ptr noundef nonnull %0)
  br label %9

9:                                                ; preds = %8, %5
  %10 = tail call zeroext i1 @SDL_PlaybackAudioThreadIterate(ptr noundef nonnull %0)
  br i1 %10, label %5, label %._crit_edge, !llvm.loop !35

._crit_edge:                                      ; preds = %9, %1
  %11 = getelementptr inbounds nuw i8, ptr %0, i64 108
  %12 = load i32, ptr %11, align 4
  %13 = getelementptr inbounds nuw i8, ptr %0, i64 96
  %14 = load i32, ptr %13, align 8
  %15 = getelementptr inbounds nuw i8, ptr %0, i64 100
  %16 = load i32, ptr %15, align 4
  %17 = getelementptr inbounds nuw i8, ptr %0, i64 144
  %18 = tail call i32 @SDL_GetAtomicInt_REAL(ptr noundef nonnull %17) #14
  %.not.i = icmp eq i32 %18, 0
  br i1 %.not.i, label %19, label %SDL_PlaybackAudioThreadShutdown.exit

19:                                               ; preds = %._crit_edge
  %20 = lshr i32 %14, 3
  %21 = and i32 %20, 31
  %22 = mul i32 %21, %16
  %23 = udiv i32 %12, %22
  %24 = mul nsw i32 %23, 1000
  %25 = getelementptr inbounds nuw i8, ptr %0, i64 104
  %26 = load i32, ptr %25, align 8
  %27 = sdiv i32 %24, %26
  %28 = shl nsw i32 %27, 1
  tail call void @SDL_Delay_REAL(i32 noundef %28) #14
  br label %SDL_PlaybackAudioThreadShutdown.exit

SDL_PlaybackAudioThreadShutdown.exit:             ; preds = %._crit_edge, %19
  %29 = load ptr, ptr getelementptr inbounds nuw (i8, ptr @current_audio, i64 40), align 8
  tail call void %29(ptr noundef nonnull %0) #14
  ret i32 0
}